; Function Attrs: mustprogress uwtable
define void @_ZN6google8protobuf2io16GzipOutputStream4InitEPNS1_20ZeroCopyOutputStreamERKNS2_7OptionsE(ptr noundef nonnull align 8 dereferenceable(168) %this, ptr noundef %sub_stream, ptr nocapture noundef nonnull readonly align 4 dereferenceable(16) %options) local_unnamed_addr #3 align 2 personality ptr @__gxx_personality_v0 {
entry:
  %sub_stream_ = getelementptr inbounds i8, ptr %this, i64 8
  store ptr %sub_stream, ptr %sub_stream_, align 8
  %sub_data_ = getelementptr inbounds i8, ptr %this, i64 16
  store ptr null, ptr %sub_data_, align 8
  %sub_data_size_ = getelementptr inbounds i8, ptr %this, i64 24
  store i32 0, ptr %sub_data_size_, align 8
  %buffer_size = getelementptr inbounds i8, ptr %options, i64 4
  %0 = load i32, ptr %buffer_size, align 4
  %conv = sext i32 %0 to i64
  %input_buffer_length_ = getelementptr inbounds i8, ptr %this, i64 160
  store i64 %conv, ptr %input_buffer_length_, align 8
  %call = tail call noalias noundef nonnull ptr @_Znwm(i64 noundef %conv) #15
  %input_buffer_ = getelementptr inbounds i8, ptr %this, i64 152
  store ptr %call, ptr %input_buffer_, align 8
  %zcontext_ = getelementptr inbounds i8, ptr %this, i64 32
  %zalloc = getelementptr inbounds i8, ptr %this, i64 96
  %total_out = getelementptr inbounds i8, ptr %this, i64 72
  store ptr null, ptr %zcontext_, align 8
  %avail_in = getelementptr inbounds i8, ptr %this, i64 40
  store i32 0, ptr %avail_in, align 8
  %total_in = getelementptr inbounds i8, ptr %this, i64 48
  tail call void @llvm.memset.p0.i64(ptr noundef nonnull align 8 dereferenceable(20) %total_in, i8 0, i64 20, i1 false)
  tail call void @llvm.memset.p0.i64(ptr noundef nonnull align 8 dereferenceable(16) %total_out, i8 0, i64 16, i1 false)
  tail call void @llvm.memset.p0.i64(ptr noundef nonnull align 8 dereferenceable(24) %zalloc, i8 0, i64 24, i1 false)
  %1 = load i32, ptr %options, align 4
  %cmp20 = icmp eq i32 %1, 2
  %compression_level = getelementptr inbounds i8, ptr %options, i64 8
  %2 = load i32, ptr %compression_level, align 4
  %or = select i1 %cmp20, i32 15, i32 31
  %compression_strategy = getelementptr inbounds i8, ptr %options, i64 12
  %3 = load i32, ptr %compression_strategy, align 4
  %call22 = tail call i32 @deflateInit2_(ptr noundef nonnull %zcontext_, i32 noundef %2, i32 noundef 8, i32 noundef %or, i32 noundef 8, i32 noundef %3, ptr noundef nonnull @.str.3, i32 noundef 112)
  %zerror_ = getelementptr inbounds i8, ptr %this, i64 144
  store i32 %call22, ptr %zerror_, align 8
  ret void
}